; Function Attrs: mustprogress nounwind uwtable
define hidden void @_ZN4cvc58internal13preprocessing6passes22PseudoBooleanProcessor5clearEv(ptr noundef nonnull align 8 dereferenceable(624) %0) local_unnamed_addr #6 align 2 personality ptr @__gxx_personality_v0 {
  %2 = getelementptr inbounds nuw i8, ptr %0, i64 568
  %3 = load i8, ptr %2, align 8, !tbaa !52, !range !84, !noundef !85
  %4 = trunc nuw i8 %3 to i1
  br i1 %4, label %5, label %_ZNSt8optionalIN4cvc58internal8RationalEE5resetEv.exit

5:                                                ; preds = %1
  %6 = getelementptr inbounds nuw i8, ptr %0, i64 536
  store i8 0, ptr %2, align 8, !tbaa !52
  invoke void @__gmpq_clear(ptr noundef nonnull align 8 dereferenceable(40) %6)
          to label %_ZNSt8optionalIN4cvc58internal8RationalEE5resetEv.exit unwind label %7

7:                                                ; preds = %5
  %8 = landingpad { ptr, i32 }
          catch ptr null
  %9 = extractvalue { ptr, i32 } %8, 0
  tail call void @__clang_call_terminate(ptr %9) #27
  unreachable

_ZNSt8optionalIN4cvc58internal8RationalEE5resetEv.exit: ; preds = %1, %5
  %10 = getelementptr inbounds nuw i8, ptr %0, i64 576
  %11 = load ptr, ptr %10, align 8, !tbaa !73
  %12 = getelementptr inbounds nuw i8, ptr %0, i64 584
  %13 = load ptr, ptr %12, align 8, !tbaa !71
  %.not.i.i = icmp eq ptr %13, %11
  br i1 %.not.i.i, label %_ZNSt6vectorIN4cvc58internal12NodeTemplateILb1EEESaIS3_EE5clearEv.exit, label %.lr.ph.i.i.i.i.i

.lr.ph.i.i.i.i.i:                                 ; preds = %_ZNSt8optionalIN4cvc58internal8RationalEE5resetEv.exit, %_ZSt8_DestroyIN4cvc58internal12NodeTemplateILb1EEEEvPT_.exit.i.i.i.i.i
  %.05.i.i.i.i.i = phi ptr [ %27, %_ZSt8_DestroyIN4cvc58internal12NodeTemplateILb1EEEEvPT_.exit.i.i.i.i.i ], [ %11, %_ZNSt8optionalIN4cvc58internal8RationalEE5resetEv.exit ]
  %14 = load ptr, ptr %.05.i.i.i.i.i, align 8, !tbaa !65
  %15 = load i64, ptr %14, align 8
  %16 = and i64 %15, 1152920405095219200
  %.not.i.i.i.i.i.i.i.i = icmp eq i64 %16, 1152920405095219200
  br i1 %.not.i.i.i.i.i.i.i.i, label %_ZSt8_DestroyIN4cvc58internal12NodeTemplateILb1EEEEvPT_.exit.i.i.i.i.i, label %17, !prof !69

17:                                               ; preds = %.lr.ph.i.i.i.i.i
  %18 = add i64 %15, 1152920405095219200
  %19 = and i64 %18, 1152920405095219200
  %20 = and i64 %15, -1152920405095219201
  %21 = or disjoint i64 %19, %20
  store i64 %21, ptr %14, align 8
  %22 = icmp eq i64 %19, 0
  br i1 %22, label %23, label %_ZSt8_DestroyIN4cvc58internal12NodeTemplateILb1EEEEvPT_.exit.i.i.i.i.i, !prof !69

23:                                               ; preds = %17
  invoke void @_ZN4cvc58internal4expr9NodeValue15markForDeletionEv(ptr noundef nonnull align 8 dereferenceable(24) %14)
          to label %_ZSt8_DestroyIN4cvc58internal12NodeTemplateILb1EEEEvPT_.exit.i.i.i.i.i unwind label %24

24:                                               ; preds = %23
  %25 = landingpad { ptr, i32 }
          catch ptr null
  %26 = extractvalue { ptr, i32 } %25, 0
  tail call void @__clang_call_terminate(ptr %26) #27
  unreachable

_ZSt8_DestroyIN4cvc58internal12NodeTemplateILb1EEEEvPT_.exit.i.i.i.i.i: ; preds = %23, %17, %.lr.ph.i.i.i.i.i
  %27 = getelementptr inbounds nuw i8, ptr %.05.i.i.i.i.i, i64 8
  %.not.i.i.i.i.i = icmp eq ptr %27, %13
  br i1 %.not.i.i.i.i.i, label %_ZSt8_DestroyIPN4cvc58internal12NodeTemplateILb1EEES3_EvT_S5_RSaIT0_E.exit.i.i, label %.lr.ph.i.i.i.i.i, !llvm.loop !104

_ZSt8_DestroyIPN4cvc58internal12NodeTemplateILb1EEES3_EvT_S5_RSaIT0_E.exit.i.i: ; preds = %_ZSt8_DestroyIN4cvc58internal12NodeTemplateILb1EEEEvPT_.exit.i.i.i.i.i
  store ptr %11, ptr %12, align 8, !tbaa !71
  br label %_ZNSt6vectorIN4cvc58internal12NodeTemplateILb1EEESaIS3_EE5clearEv.exit

_ZNSt6vectorIN4cvc58internal12NodeTemplateILb1EEESaIS3_EE5clearEv.exit: ; preds = %_ZNSt8optionalIN4cvc58internal8RationalEE5resetEv.exit, %_ZSt8_DestroyIPN4cvc58internal12NodeTemplateILb1EEES3_EvT_S5_RSaIT0_E.exit.i.i
  %28 = getelementptr inbounds nuw i8, ptr %0, i64 600
  %29 = load ptr, ptr %28, align 8, !tbaa !73
  %30 = getelementptr inbounds nuw i8, ptr %0, i64 608
  %31 = load ptr, ptr %30, align 8, !tbaa !71
  %.not.i.i1 = icmp eq ptr %31, %29
  br i1 %.not.i.i1, label %_ZNSt6vectorIN4cvc58internal12NodeTemplateILb1EEESaIS3_EE5clearEv.exit8, label %.lr.ph.i.i.i.i.i2

.lr.ph.i.i.i.i.i2:                                ; preds = %_ZNSt6vectorIN4cvc58internal12NodeTemplateILb1EEESaIS3_EE5clearEv.exit, %_ZSt8_DestroyIN4cvc58internal12NodeTemplateILb1EEEEvPT_.exit.i.i.i.i.i5
  %.05.i.i.i.i.i3 = phi ptr [ %45, %_ZSt8_DestroyIN4cvc58internal12NodeTemplateILb1EEEEvPT_.exit.i.i.i.i.i5 ], [ %29, %_ZNSt6vectorIN4cvc58internal12NodeTemplateILb1EEESaIS3_EE5clearEv.exit ]
  %32 = load ptr, ptr %.05.i.i.i.i.i3, align 8, !tbaa !65
  %33 = load i64, ptr %32, align 8
  %34 = and i64 %33, 1152920405095219200
  %.not.i.i.i.i.i.i.i.i4 = icmp eq i64 %34, 1152920405095219200
  br i1 %.not.i.i.i.i.i.i.i.i4, label %_ZSt8_DestroyIN4cvc58internal12NodeTemplateILb1EEEEvPT_.exit.i.i.i.i.i5, label %35, !prof !69

35:                                               ; preds = %.lr.ph.i.i.i.i.i2
  %36 = add i64 %33, 1152920405095219200
  %37 = and i64 %36, 1152920405095219200
  %38 = and i64 %33, -1152920405095219201
  %39 = or disjoint i64 %37, %38
  store i64 %39, ptr %32, align 8
  %40 = icmp eq i64 %37, 0
  br i1 %40, label %41, label %_ZSt8_DestroyIN4cvc58internal12NodeTemplateILb1EEEEvPT_.exit.i.i.i.i.i5, !prof !69

41:                                               ; preds = %35
  invoke void @_ZN4cvc58internal4expr9NodeValue15markForDeletionEv(ptr noundef nonnull align 8 dereferenceable(24) %32)
          to label %_ZSt8_DestroyIN4cvc58internal12NodeTemplateILb1EEEEvPT_.exit.i.i.i.i.i5 unwind label %42

42:                                               ; preds = %41
  %43 = landingpad { ptr, i32 }
          catch ptr null
  %44 = extractvalue { ptr, i32 } %43, 0
  tail call void @__clang_call_terminate(ptr %44) #27
  unreachable

_ZSt8_DestroyIN4cvc58internal12NodeTemplateILb1EEEEvPT_.exit.i.i.i.i.i5: ; preds = %41, %35, %.lr.ph.i.i.i.i.i2
  %45 = getelementptr inbounds nuw i8, ptr %.05.i.i.i.i.i3, i64 8
  %.not.i.i.i.i.i6 = icmp eq ptr %45, %31
  br i1 %.not.i.i.i.i.i6, label %_ZSt8_DestroyIPN4cvc58internal12NodeTemplateILb1EEES3_EvT_S5_RSaIT0_E.exit.i.i7, label %.lr.ph.i.i.i.i.i2, !llvm.loop !104

_ZSt8_DestroyIPN4cvc58internal12NodeTemplateILb1EEES3_EvT_S5_RSaIT0_E.exit.i.i7: ; preds = %_ZSt8_DestroyIN4cvc58internal12NodeTemplateILb1EEEEvPT_.exit.i.i.i.i.i5
  store ptr %29, ptr %30, align 8, !tbaa !71
  br label %_ZNSt6vectorIN4cvc58internal12NodeTemplateILb1EEESaIS3_EE5clearEv.exit8

_ZNSt6vectorIN4cvc58internal12NodeTemplateILb1EEESaIS3_EE5clearEv.exit8: ; preds = %_ZNSt6vectorIN4cvc58internal12NodeTemplateILb1EEESaIS3_EE5clearEv.exit, %_ZSt8_DestroyIPN4cvc58internal12NodeTemplateILb1EEES3_EvT_S5_RSaIT0_E.exit.i.i7
  ret void
}